; Function Attrs: mustprogress nofree norecurse nosync nounwind willreturn memory(read, inaccessiblemem: none) uwtable
define noundef double @_ZNK8LightGBM4Tree18GetLowerBoundValueEv(ptr noundef nonnull readonly align 8 captures(none) dereferenceable(648) %0) local_unnamed_addr #22 align 2 {
  %2 = getelementptr inbounds nuw i8, ptr %0, i64 336
  %3 = load ptr, ptr %2, align 8, !tbaa !18
  %4 = load double, ptr %3, align 8, !tbaa !66
  %5 = getelementptr inbounds nuw i8, ptr %0, i64 12
  %6 = load i32, ptr %5, align 4, !tbaa !130
  %7 = icmp sgt i32 %6, 1
  br i1 %7, label %.lr.ph.preheader, label %._crit_edge

.lr.ph.preheader:                                 ; preds = %1
  %wide.trip.count = zext nneg i32 %6 to i64
  br label %.lr.ph

._crit_edge:                                      ; preds = %.lr.ph, %1
  %.06.lcssa = phi double [ %4, %1 ], [ %.1, %.lr.ph ]
  ret double %.06.lcssa

.lr.ph:                                           ; preds = %.lr.ph.preheader, %.lr.ph
  %indvars.iv = phi i64 [ 1, %.lr.ph.preheader ], [ %indvars.iv.next, %.lr.ph ]
  %.067 = phi double [ %4, %.lr.ph.preheader ], [ %.1, %.lr.ph ]
  %8 = getelementptr inbounds nuw double, ptr %3, i64 %indvars.iv
  %9 = load double, ptr %8, align 8, !tbaa !66
  %10 = fcmp olt double %9, %.067
  %.1 = select i1 %10, double %9, double %.067
  %indvars.iv.next = add nuw nsw i64 %indvars.iv, 1
  %exitcond.not = icmp eq i64 %indvars.iv.next, %wide.trip.count
  br i1 %exitcond.not, label %._crit_edge, label %.lr.ph, !llvm.loop !388
}